target datalayout = "e-m:e-p270:32:32-p271:32:32-p272:64:64-i64:64-i128:128-f80:128-n8:16:32:64-S128"
target triple = "x86_64-unknown-linux-gnu"

%class.b3ProfileZone = type { i8 }

@.str = private unnamed_addr constant [11 x i8] c"solveGroup\00", align 1

; Function Attrs: mustprogress nounwind uwtable
define linkonce_odr dso_local void @_ZN13b3ProfileZoneD2Ev(ptr noundef nonnull align 1 dereferenceable(1) %this) unnamed_addr #1 comdat align 2 personality ptr @__gxx_personality_v0 {
entry:
  %this.addr = alloca ptr, align 8
  store ptr %this, ptr %this.addr, align 8
  invoke void @b3LeaveProfileZone()
          to label %invoke.cont unwind label %terminate.lpad

invoke.cont:                                      ; preds = %entry
  ret void

terminate.lpad:                                   ; preds = %entry
  %0 = landingpad { ptr, i32 }
          catch ptr null
  %1 = extractvalue { ptr, i32 } %0, 0
  call void @__clang_call_terminate(ptr %1) #11
  unreachable
}

; Function Attrs: mustprogress uwtable
define linkonce_odr dso_local void @_ZN13b3ProfileZoneC2EPKc(ptr noundef nonnull align 1 dereferenceable(1) %this, ptr noundef %name) unnamed_addr #3 comdat align 2 {
entry:
  %this.addr = alloca ptr, align 8
  %name.addr = alloca ptr, align 8
  store ptr %this, ptr %this.addr, align 8
  store ptr %name, ptr %name.addr, align 8
  %0 = load ptr, ptr %name.addr, align 8
  call void @b3EnterProfileZone(ptr noundef %0)
  ret void
}

; Function Attrs: mustprogress uwtable
define dso_local noundef float @_ZN17b3PgsJacobiSolver10solveGroupEP15b3RigidBodyDataP13b3InertiaDataiP10b3Contact4iPP17b3TypedConstraintiRK19b3ContactSolverInfo(ptr noundef nonnull align 8 dereferenceable(448) %this, ptr noundef %bodies, ptr noundef %inertias, i32 noundef %numBodies, ptr noundef %manifoldPtr, i32 noundef %numManifolds, ptr noundef %constraints, i32 noundef %numConstraints, ptr noundef nonnull align 4 dereferenceable(84) %infoGlobal) #3 align 2 personality ptr @__gxx_personality_v0 {
entry:
  %this.addr = alloca ptr, align 8
  %bodies.addr = alloca ptr, align 8
  %inertias.addr = alloca ptr, align 8
  %numBodies.addr = alloca i32, align 4
  %manifoldPtr.addr = alloca ptr, align 8
  %numManifolds.addr = alloca i32, align 4
  %constraints.addr = alloca ptr, align 8
  %numConstraints.addr = alloca i32, align 4
  %infoGlobal.addr = alloca ptr, align 8
  %__profile = alloca %class.b3ProfileZone, align 1
  %exn.slot = alloca ptr, align 8
  %ehselector.slot = alloca i32, align 4
  store ptr %this, ptr %this.addr, align 8
  store ptr %bodies, ptr %bodies.addr, align 8
  store ptr %inertias, ptr %inertias.addr, align 8
  store i32 %numBodies, ptr %numBodies.addr, align 4
  store ptr %manifoldPtr, ptr %manifoldPtr.addr, align 8
  store i32 %numManifolds, ptr %numManifolds.addr, align 4
  store ptr %constraints, ptr %constraints.addr, align 8
  store i32 %numConstraints, ptr %numConstraints.addr, align 4
  store ptr %infoGlobal, ptr %infoGlobal.addr, align 8
  %this1 = load ptr, ptr %this.addr, align 8
  call void @_ZN13b3ProfileZoneC2EPKc(ptr noundef nonnull align 1 dereferenceable(1) %__profile, ptr noundef @.str)
  %0 = load ptr, ptr %bodies.addr, align 8
  %1 = load ptr, ptr %inertias.addr, align 8
  %2 = load i32, ptr %numBodies.addr, align 4
  %3 = load ptr, ptr %manifoldPtr.addr, align 8
  %4 = load i32, ptr %numManifolds.addr, align 4
  %5 = load ptr, ptr %constraints.addr, align 8
  %6 = load i32, ptr %numConstraints.addr, align 4
  %7 = load ptr, ptr %infoGlobal.addr, align 8
  %vtable = load ptr, ptr %this1, align 8
  %vfn = getelementptr inbounds ptr, ptr %vtable, i64 0
  %8 = load ptr, ptr %vfn, align 8
  %call = invoke noundef float %8(ptr noundef nonnull align 8 dereferenceable(448) %this1, ptr noundef %0, ptr noundef %1, i32 noundef %2, ptr noundef %3, i32 noundef %4, ptr noundef %5, i32 noundef %6, ptr noundef nonnull align 4 dereferenceable(84) %7)
          to label %invoke.cont unwind label %lpad

invoke.cont:                                      ; preds = %entry
  %9 = load ptr, ptr %constraints.addr, align 8
  %10 = load i32, ptr %numConstraints.addr, align 4
  %11 = load ptr, ptr %infoGlobal.addr, align 8
  %vtable2 = load ptr, ptr %this1, align 8
  %vfn3 = getelementptr inbounds ptr, ptr %vtable2, i64 1
  %12 = load ptr, ptr %vfn3, align 8
  %call5 = invoke noundef float %12(ptr noundef nonnull align 8 dereferenceable(448) %this1, ptr noundef %9, i32 noundef %10, ptr noundef nonnull align 4 dereferenceable(84) %11)
          to label %invoke.cont4 unwind label %lpad

invoke.cont4:                                     ; preds = %invoke.cont
  %13 = load ptr, ptr %bodies.addr, align 8
  %14 = load ptr, ptr %inertias.addr, align 8
  %15 = load i32, ptr %numBodies.addr, align 4
  %16 = load ptr, ptr %infoGlobal.addr, align 8
  %vtable6 = load ptr, ptr %this1, align 8
  %vfn7 = getelementptr inbounds ptr, ptr %vtable6, i64 3
  %17 = load ptr, ptr %vfn7, align 8
  %call9 = invoke noundef float %17(ptr noundef nonnull align 8 dereferenceable(448) %this1, ptr noundef %13, ptr noundef %14, i32 noundef %15, ptr noundef nonnull align 4 dereferenceable(84) %16)
          to label %invoke.cont8 unwind label %lpad

invoke.cont8:                                     ; preds = %invoke.cont4
  call void @_ZN13b3ProfileZoneD2Ev(ptr noundef nonnull align 1 dereferenceable(1) %__profile) #10
  ret float 0.000000e+00

lpad:                                             ; preds = %invoke.cont4, %invoke.cont, %entry
  %18 = landingpad { ptr, i32 }
          cleanup
  %19 = extractvalue { ptr, i32 } %18, 0
  store ptr %19, ptr %exn.slot, align 8
  %20 = extractvalue { ptr, i32 } %18, 1
  store i32 %20, ptr %ehselector.slot, align 4
  call void @_ZN13b3ProfileZoneD2Ev(ptr noundef nonnull align 1 dereferenceable(1) %__profile) #10
  br label %eh.resume

eh.resume:                                        ; preds = %lpad
  %exn = load ptr, ptr %exn.slot, align 8
  %sel = load i32, ptr %ehselector.slot, align 4
  %lpad.val = insertvalue { ptr, i32 } poison, ptr %exn, 0
  %lpad.val10 = insertvalue { ptr, i32 } %lpad.val, i32 %sel, 1
  resume { ptr, i32 } %lpad.val10
}