; Function Attrs: mustprogress uwtable
define dso_local noundef float @_ZN17b3PgsJacobiSolver10solveGroupEP15b3RigidBodyDataP13b3InertiaDataiP10b3Contact4iPP17b3TypedConstraintiRK19b3ContactSolverInfo(ptr noundef nonnull align 8 dereferenceable(448) %this, ptr noundef %bodies, ptr noundef %inertias, i32 noundef %numBodies, ptr noundef %manifoldPtr, i32 noundef %numManifolds, ptr noundef %constraints, i32 noundef %numConstraints, ptr noundef nonnull align 4 dereferenceable(84) %infoGlobal) local_unnamed_addr #5 align 2 personality ptr @__gxx_personality_v0 {
entry:
  tail call void @b3EnterProfileZone(ptr noundef nonnull @.str)
  %vtable = load ptr, ptr %this, align 8
  %0 = load ptr, ptr %vtable, align 8
  %call = invoke noundef float %0(ptr noundef nonnull align 8 dereferenceable(448) %this, ptr noundef %bodies, ptr noundef %inertias, i32 noundef %numBodies, ptr noundef %manifoldPtr, i32 noundef %numManifolds, ptr noundef %constraints, i32 noundef %numConstraints, ptr noundef nonnull align 4 dereferenceable(84) %infoGlobal)
          to label %invoke.cont unwind label %lpad

invoke.cont:                                      ; preds = %entry
  %vtable2 = load ptr, ptr %this, align 8
  %vfn3 = getelementptr inbounds i8, ptr %vtable2, i64 8
  %1 = load ptr, ptr %vfn3, align 8
  %call5 = invoke noundef float %1(ptr noundef nonnull align 8 dereferenceable(448) %this, ptr noundef %constraints, i32 noundef %numConstraints, ptr noundef nonnull align 4 dereferenceable(84) %infoGlobal)
          to label %invoke.cont4 unwind label %lpad

invoke.cont4:                                     ; preds = %invoke.cont
  %vtable6 = load ptr, ptr %this, align 8
  %vfn7 = getelementptr inbounds i8, ptr %vtable6, i64 24
  %2 = load ptr, ptr %vfn7, align 8
  %call9 = invoke noundef float %2(ptr noundef nonnull align 8 dereferenceable(448) %this, ptr noundef %bodies, ptr noundef %inertias, i32 noundef %numBodies, ptr noundef nonnull align 4 dereferenceable(84) %infoGlobal)
          to label %invoke.cont8 unwind label %lpad

invoke.cont8:                                     ; preds = %invoke.cont4
  invoke void @b3LeaveProfileZone()
          to label %_ZN13b3ProfileZoneD2Ev.exit unwind label %terminate.lpad.i

terminate.lpad.i:                                 ; preds = %invoke.cont8
  %3 = landingpad { ptr, i32 }
          catch ptr null
  %4 = extractvalue { ptr, i32 } %3, 0
  tail call void @__clang_call_terminate(ptr %4) #19
  unreachable

_ZN13b3ProfileZoneD2Ev.exit:                      ; preds = %invoke.cont8
  ret float 0.000000e+00

lpad:                                             ; preds = %invoke.cont4, %invoke.cont, %entry
  %5 = landingpad { ptr, i32 }
          cleanup
  invoke void @b3LeaveProfileZone()
          to label %_ZN13b3ProfileZoneD2Ev.exit9 unwind label %terminate.lpad.i8

terminate.lpad.i8:                                ; preds = %lpad
  %6 = landingpad { ptr, i32 }
          catch ptr null
  %7 = extractvalue { ptr, i32 } %6, 0
  tail call void @__clang_call_terminate(ptr %7) #19
  unreachable

_ZN13b3ProfileZoneD2Ev.exit9:                     ; preds = %lpad
  resume { ptr, i32 } %5
}